(dp1
S'twisted_reactors'
p2
ccopy_reg
_reconstructor
p3
(ctwisted.plugin
CachedDropin
p4
c__builtin__
object
p5
NtRp6
(dp7
S'moduleName'
p8
S'twisted.plugins.twisted_reactors'
p9
sS'description'
p10
NsS'plugins'
p11
(lp12
g3
(ctwisted.plugin
CachedPlugin
p13
g5
NtRp14
(dp15
S'provided'
p16
(lp17
ctwisted.plugin
IPlugin
p18
actwisted.application.reactors
IReactorInstaller
p19
asS'dropin'
p20
g6
sS'name'
p21
S'kqueue'
p22
sg10
S'\n    @ivar moduleName: The fully-qualified Python name of the module of which\n    the install callable is an attribute.\n    '
p23
sbag3
(g13
g5
NtRp24
(dp25
g16
(lp26
g18
ag19
asg20
g6
sg21
S'win32er'
p27
sg10
g23
sbag3
(g13
g5
NtRp28
(dp29
g16
(lp30
g18
ag19
asg20
g6
sg21
S'epoll'
p31
sg10
g23
sbag3
(g13
g5
NtRp32
(dp33
g16
(lp34
g18
ag19
asg20
g6
sg21
S'iocp'
p35
sg10
g23
sbag3
(g13
g5
NtRp36
(dp37
g16
(lp38
g18
ag19
asg20
g6
sg21
S'gtk'
p39
sg10
g23
sbag3
(g13
g5
NtRp40
(dp41
g16
(lp42
g18
ag19
asg20
g6
sg21
S'cf'
p43
sg10
g23
sbag3
(g13
g5
NtRp44
(dp45
g16
(lp46
g18
ag19
asg20
g6
sg21
S'gtk2'
p47
sg10
g23
sbag3
(g13
g5
NtRp48
(dp49
g16
(lp50
g18
ag19
asg20
g6
sg21
S'default'
p51
sg10
g23
sbag3
(g13
g5
NtRp52
(dp53
g16
(lp54
g18
ag19
asg20
g6
sg21
S'glade'
p55
sg10
g23
sbag3
(g13
g5
NtRp56
(dp57
g16
(lp58
g18
ag19
asg20
g6
sg21
S'poll'
p59
sg10
g23
sbag3
(g13
g5
NtRp60
(dp61
g16
(lp62
g18
ag19
asg20
g6
sg21
S'glib2'
p63
sg10
g23
sbag3
(g13
g5
NtRp64
(dp65
g16
(lp66
g18
ag19
asg20
g6
sg21
S'select'
p67
sg10
g23
sbag3
(g13
g5
NtRp68
(dp69
g16
(lp70
g18
ag19
asg20
g6
sg21
S'wx'
p71
sg10
g23
sbasbsS'cred_memory'
p72
g3
(g4
g5
NtRp73
(dp74
g8
S'twisted.plugins.cred_memory'
p75
sg10
S'\nCred plugin for an in-memory user database.\n'
p76
sg11
(lp77
g3
(g13
g5
NtRp78
(dp79
g16
(lp80
ctwisted.cred.strcred
ICheckerFactory
p81
ag18
asg20
g73
sg21
S'theInMemoryCheckerFactory'
p82
sg10
S"\n    A factory for in-memory credentials checkers.\n\n    This is only of use in one-off test programs or examples which don't\n    want to focus too much on how credentials are verified.\n\n    You really don't want to use this for anything else.  It is, at best, a\n    toy.  If you need a simple credentials checker for a real application,\n    see L{cred_passwd.PasswdCheckerFactory}.\n    "
p83
sbasbsS'twisted_web'
p84
g3
(g4
g5
NtRp85
(dp86
g8
S'twisted.plugins.twisted_web'
p87
sg10
Nsg11
(lp88
g3
(g13
g5
NtRp89
(dp90
g16
(lp91
g18
actwisted.application.service
IServiceMaker
p92
asg20
g85
sg21
S'TwistedWeb'
p93
sg10
S'\n    Utility class to simplify the definition of L{IServiceMaker} plugins.\n    '
p94
sbasbsS'twisted_inet'
p95
g3
(g4
g5
NtRp96
(dp97
g8
S'twisted.plugins.twisted_inet'
p98
sg10
Nsg11
(lp99
g3
(g13
g5
NtRp100
(dp101
g16
(lp102
g18
ag92
asg20
g96
sg21
S'TwistedINETD'
p103
sg10
g94
sbasbsS'cred_file'
p104
g3
(g4
g5
NtRp105
(dp106
g8
S'twisted.plugins.cred_file'
p107
sg10
S"\nCred plugin for a file of the format 'username:password'.\n"
p108
sg11
(lp109
g3
(g13
g5
NtRp110
(dp111
g16
(lp112
g81
ag18
asg20
g105
sg21
S'theFileCheckerFactory'
p113
sg10
S'\n    A factory for instances of L{FilePasswordDB}.\n    '
p114
sbasbsS'twisted_trial'
p115
g3
(g4
g5
NtRp116
(dp117
g8
S'twisted.plugins.twisted_trial'
p118
sg10
Nsg11
(lp119
g3
(g13
g5
NtRp120
(dp121
g16
(lp122
g18
actwisted.trial.itrial
IReporter
p123
asg20
g116
sg21
S'Subunit'
p124
sg10
Nsbag3
(g13
g5
NtRp125
(dp126
g16
(lp127
g18
ag123
asg20
g116
sg21
S'BlackAndWhite'
p128
sg10
Nsbag3
(g13
g5
NtRp129
(dp130
g16
(lp131
g18
ag123
asg20
g116
sg21
S'Classic'
p132
sg10
Nsbag3
(g13
g5
NtRp133
(dp134
g16
(lp135
g18
ag123
asg20
g116
sg21
S'Tree'
p136
sg10
Nsbag3
(g13
g5
NtRp137
(dp138
g16
(lp139
g18
ag123
asg20
g116
sg21
S'Timing'
p140
sg10
Nsbag3
(g13
g5
NtRp141
(dp142
g16
(lp143
g18
ag123
asg20
g116
sg21
S'Minimal'
p144
sg10
NsbasbsS'twisted_ftp'
p145
g3
(g4
g5
NtRp146
(dp147
g8
S'twisted.plugins.twisted_ftp'
p148
sg10
Nsg11
(lp149
g3
(g13
g5
NtRp150
(dp151
g16
(lp152
g18
ag92
asg20
g146
sg21
S'TwistedFTP'
p153
sg10
g94
sbasbsS'twisted_telnet'
p154
g3
(g4
g5
NtRp155
(dp156
g8
S'twisted.plugins.twisted_telnet'
p157
sg10
Nsg11
(lp158
g3
(g13
g5
NtRp159
(dp160
g16
(lp161
g18
ag92
asg20
g155
sg21
S'TwistedTelnet'
p162
sg10
g94
sbasbsS'twisted_news'
p163
g3
(g4
g5
NtRp164
(dp165
g8
S'twisted.plugins.twisted_news'
p166
sg10
Nsg11
(lp167
g3
(g13
g5
NtRp168
(dp169
g16
(lp170
g18
ag92
asg20
g164
sg21
S'TwistedNews'
p171
sg10
g94
sbasbsS'twisted_socks'
p172
g3
(g4
g5
NtRp173
(dp174
g8
S'twisted.plugins.twisted_socks'
p175
sg10
Nsg11
(lp176
g3
(g13
g5
NtRp177
(dp178
g16
(lp179
g18
ag92
asg20
g173
sg21
S'TwistedSOCKS'
p180
sg10
g94
sbasbsS'twisted_manhole'
p181
g3
(g4
g5
NtRp182
(dp183
g8
S'twisted.plugins.twisted_manhole'
p184
sg10
Nsg11
(lp185
g3
(g13
g5
NtRp186
(dp187
g16
(lp188
g18
ag92
asg20
g182
sg21
S'TwistedManhole'
p189
sg10
g94
sbasbsS'twisted_qtstub'
p190
g3
(g4
g5
NtRp191
(dp192
g8
S'twisted.plugins.twisted_qtstub'
p193
sg10
S'\nBackwards-compatibility plugin for the Qt reactor.\n\nThis provides a Qt reactor plugin named C{qt} which emits a deprecation\nwarning and a pointer to the separately distributed Qt reactor plugins.\n'
p194
sg11
(lp195
g3
(g13
g5
NtRp196
(dp197
g16
(lp198
g18
ag19
asg20
g191
sg21
S'qt'
p199
sg10
S'\n    Reactor plugin which emits a deprecation warning on the successful\n    installation of its reactor or a pointer to further information if an\n    ImportError occurs while attempting to install it.\n    '
p200
sbasbsS'cred_unix'
p201
g3
(g4
g5
NtRp202
(dp203
g8
S'twisted.plugins.cred_unix'
p204
sg10
S'\nCred plugin for UNIX user accounts.\n'
p205
sg11
(lp206
g3
(g13
g5
NtRp207
(dp208
g16
(lp209
g81
ag18
asg20
g202
sg21
S'theUnixCheckerFactory'
p210
sg10
S'\n    A factory for L{UNIXChecker}.\n    '
p211
sbasbsS'twisted_words'
p212
g3
(g4
g5
NtRp213
(dp214
g8
S'twisted.plugins.twisted_words'
p215
sg10
Nsg11
(lp216
g3
(g13
g5
NtRp217
(dp218
g16
(lp219
g18
ag92
asg20
g213
sg21
S'TwistedXMPPRouter'
p220
sg10
g94
sbag3
(g13
g5
NtRp221
(dp222
g16
(lp223
g18
actwisted.words.iwords
IProtocolPlugin
p224
asg20
g213
sg21
S'RelayChatInterface'
p225
sg10
Nsbag3
(g13
g5
NtRp226
(dp227
g16
(lp228
g18
ag92
asg20
g213
sg21
S'NewTwistedWords'
p229
sg10
g94
sbag3
(g13
g5
NtRp230
(dp231
g16
(lp232
g18
ag224
asg20
g213
sg21
S'PBChatInterface'
p233
sg10
Nsbag3
(g13
g5
NtRp234
(dp235
g16
(lp236
g18
ag92
asg20
g213
sg21
S'TwistedTOC'
p237
sg10
g94
sbasbsS'cred_anonymous'
p238
g3
(g4
g5
NtRp239
(dp240
g8
S'twisted.plugins.cred_anonymous'
p241
sg10
S'\nCred plugin for anonymous logins.\n'
p242
sg11
(lp243
g3
(g13
g5
NtRp244
(dp245
g16
(lp246
g81
ag18
asg20
g239
sg21
S'theAnonymousCheckerFactory'
p247
sg10
S'\n    Generates checkers that will authenticate an anonymous request.\n    '
p248
sbasbsS'twisted_lore'
p249
g3
(g4
g5
NtRp250
(dp251
g8
S'twisted.plugins.twisted_lore'
p252
sg10
Nsg11
(lp253
g3
(g13
g5
NtRp254
(dp255
g16
(lp256
g18
actwisted.lore.scripts.lore
IProcessor
p257
asg20
g250
sg21
S'SlideProcessor'
p258
sg10
Nsbag3
(g13
g5
NtRp259
(dp260
g16
(lp261
g18
ag257
asg20
g250
sg21
S'DefaultProcessor'
p262
sg10
Nsbag3
(g13
g5
NtRp263
(dp264
g16
(lp265
g18
ag257
asg20
g250
sg21
S'MathProcessor'
p266
sg10
Nsbag3
(g13
g5
NtRp267
(dp268
g16
(lp269
g18
ag257
asg20
g250
sg21
S'NevowProcessor'
p270
sg10
Nsbag3
(g13
g5
NtRp271
(dp272
g16
(lp273
g18
ag257
asg20
g250
sg21
S'ManProcessor'
p274
sg10
NsbasbsS'twisted_names'
p275
g3
(g4
g5
NtRp276
(dp277
g8
S'twisted.plugins.twisted_names'
p278
sg10
Nsg11
(lp279
g3
(g13
g5
NtRp280
(dp281
g16
(lp282
g18
ag92
asg20
g276
sg21
S'TwistedNames'
p283
sg10
g94
sbasbsS'twisted_mail'
p284
g3
(g4
g5
NtRp285
(dp286
g8
S'twisted.plugins.twisted_mail'
p287
sg10
Nsg11
(lp288
g3
(g13
g5
NtRp289
(dp290
g16
(lp291
g18
ag92
asg20
g285
sg21
S'TwistedMail'
p292
sg10
g94
sbasbsS'twisted_conch'
p293
g3
(g4
g5
NtRp294
(dp295
g8
S'twisted.plugins.twisted_conch'
p296
sg10
Nsg11
(lp297
g3
(g13
g5
NtRp298
(dp299
g16
(lp300
g18
ag92
asg20
g294
sg21
g189
sg10
g94
sbag3
(g13
g5
NtRp301
(dp302
g16
(lp303
g18
ag92
asg20
g294
sg21
S'TwistedSSH'
p304
sg10
g94
sbasbsS'twisted_portforward'
p305
g3
(g4
g5
NtRp306
(dp307
g8
S'twisted.plugins.twisted_portforward'
p308
sg10
Nsg11
(lp309
g3
(g13
g5
NtRp310
(dp311
g16
(lp312
g18
ag92
asg20
g306
sg21
S'TwistedPortForward'
p313
sg10
g94
sbasbsS'twisted_runner'
p314
g3
(g4
g5
NtRp315
(dp316
g8
S'twisted.plugins.twisted_runner'
p317
sg10
Nsg11
(lp318
g3
(g13
g5
NtRp319
(dp320
g16
(lp321
g18
ag92
asg20
g315
sg21
S'TwistedProcmon'
p322
sg10
g94
sbasbs.